target datalayout = "e-m:e-p270:32:32-p271:32:32-p272:64:64-i64:64-i128:128-f80:128-n8:16:32:64-S128"
target triple = "x86_64-pc-linux-gnu"

; Function Attrs: nounwind uwtable
define dso_local i32 @tls13_alert_code(i32 noundef %0) #0 {
  %2 = alloca i32, align 4
  %3 = alloca i32, align 4
  store i32 %0, ptr %3, align 4, !tbaa !15
  %4 = load i32, ptr %3, align 4, !tbaa !15
  %5 = icmp eq i32 %4, 109
  br i1 %5, label %9, label %6

6:                                                ; preds = %1
  %7 = load i32, ptr %3, align 4, !tbaa !15
  %8 = icmp eq i32 %7, 116
  br i1 %8, label %9, label %11

9:                                                ; preds = %6, %1
  %10 = load i32, ptr %3, align 4, !tbaa !15
  store i32 %10, ptr %2, align 4
  br label %14

11:                                               ; preds = %6
  %12 = load i32, ptr %3, align 4, !tbaa !15
  %13 = call i32 @tls1_alert_code(i32 noundef %12)
  store i32 %13, ptr %2, align 4
  br label %14

14:                                               ; preds = %11, %9
  %15 = load i32, ptr %2, align 4
  ret i32 %15
}