; Function Attrs: nounwind uwtable
define dso_local i32 @tls13_alert_code(i32 noundef %0) local_unnamed_addr #0 {
  switch i32 %0, label %2 [
    i32 116, label %4
    i32 109, label %4
  ]

2:                                                ; preds = %1
  %3 = tail call i32 @tls1_alert_code(i32 noundef %0) #4
  br label %4

4:                                                ; preds = %1, %1, %2
  %.0 = phi i32 [ %3, %2 ], [ %0, %1 ], [ %0, %1 ]
  ret i32 %.0
}